target datalayout = "e-m:e-p270:32:32-p271:32:32-p272:64:64-i64:64-i128:128-f80:128-n8:16:32:64-S128"
target triple = "x86_64-pc-linux-gnu"

%struct.PQExpBufferData = type { ptr, i64, i64 }

@getLocalPQExpBuffer = dso_local global ptr @defaultGetLocalPQExpBuffer, align 8
@.str = private unnamed_addr constant [4 x i8] c"%s.\00", align 1

; Function Attrs: nounwind uwtable
define dso_local ptr @fmtQualifiedIdEnc(ptr noundef %0, ptr noundef %1, i32 noundef %2) #0 {
  %4 = alloca ptr, align 8
  %5 = alloca ptr, align 8
  %6 = alloca i32, align 4
  %7 = alloca ptr, align 8
  %8 = alloca ptr, align 8
  store ptr %0, ptr %4, align 8
  store ptr %1, ptr %5, align 8
  store i32 %2, ptr %6, align 4
  call void @llvm.lifetime.start.p0(i64 8, ptr %7) #8
  call void @llvm.lifetime.start.p0(i64 8, ptr %8) #8
  %9 = call ptr @createPQExpBuffer()
  store ptr %9, ptr %8, align 8
  %10 = load ptr, ptr %4, align 8
  %11 = icmp ne ptr %10, null
  br i1 %11, label %12, label %22

12:                                               ; preds = %3
  %13 = load ptr, ptr %4, align 8
  %14 = load i8, ptr %13, align 1
  %15 = sext i8 %14 to i32
  %16 = icmp ne i32 %15, 0
  br i1 %16, label %17, label %22

17:                                               ; preds = %12
  %18 = load ptr, ptr %8, align 8
  %19 = load ptr, ptr %4, align 8
  %20 = load i32, ptr %6, align 4
  %21 = call ptr @fmtIdEnc(ptr noundef %19, i32 noundef %20)
  call void (ptr, ptr, ...) @appendPQExpBuffer(ptr noundef %18, ptr noundef @.str, ptr noundef %21)
  br label %22

22:                                               ; preds = %17, %12, %3
  %23 = load ptr, ptr %8, align 8
  %24 = load ptr, ptr %5, align 8
  %25 = load i32, ptr %6, align 4
  %26 = call ptr @fmtIdEnc(ptr noundef %24, i32 noundef %25)
  call void @appendPQExpBufferStr(ptr noundef %23, ptr noundef %26)
  %27 = load ptr, ptr @getLocalPQExpBuffer, align 8
  %28 = call ptr %27()
  store ptr %28, ptr %7, align 8
  %29 = load ptr, ptr %7, align 8
  %30 = load ptr, ptr %8, align 8
  %31 = getelementptr inbounds nuw %struct.PQExpBufferData, ptr %30, i32 0, i32 0
  %32 = load ptr, ptr %31, align 8
  call void @appendPQExpBufferStr(ptr noundef %29, ptr noundef %32)
  %33 = load ptr, ptr %8, align 8
  call void @destroyPQExpBuffer(ptr noundef %33)
  %34 = load ptr, ptr %7, align 8
  %35 = getelementptr inbounds nuw %struct.PQExpBufferData, ptr %34, i32 0, i32 0
  %36 = load ptr, ptr %35, align 8
  call void @llvm.lifetime.end.p0(i64 8, ptr %8) #8
  call void @llvm.lifetime.end.p0(i64 8, ptr %7) #8
  ret ptr %36
}