; Function Attrs: nounwind uwtable
define dso_local ptr @fmtQualifiedIdEnc(ptr noundef %0, ptr noundef %1, i32 noundef %2) local_unnamed_addr #0 {
  %4 = tail call ptr @createPQExpBuffer() #11
  %.not = icmp eq ptr %0, null
  br i1 %.not, label %9, label %5

5:                                                ; preds = %3
  %6 = load i8, ptr %0, align 1
  %.not11 = icmp eq i8 %6, 0
  br i1 %.not11, label %9, label %7

7:                                                ; preds = %5
  %8 = tail call ptr @fmtIdEnc(ptr noundef nonnull %0, i32 noundef %2)
  tail call void (ptr, ptr, ...) @appendPQExpBuffer(ptr noundef %4, ptr noundef nonnull @.str, ptr noundef %8) #11
  br label %9

9:                                                ; preds = %7, %5, %3
  %10 = tail call ptr @fmtIdEnc(ptr noundef %1, i32 noundef %2)
  tail call void @appendPQExpBufferStr(ptr noundef %4, ptr noundef %10) #11
  %11 = load ptr, ptr @getLocalPQExpBuffer, align 8
  %12 = tail call ptr %11() #11
  %13 = load ptr, ptr %4, align 8
  tail call void @appendPQExpBufferStr(ptr noundef %12, ptr noundef %13) #11
  tail call void @destroyPQExpBuffer(ptr noundef nonnull %4) #11
  %14 = load ptr, ptr %12, align 8
  ret ptr %14
}